Certificate:
    Data:
        Version: 3 (0x2)
        Serial Number:
            6e:9d:c6:4c:cc:32:15:a5:95:a9:e4:2c:d8:9a:7c:73:ae:44:18:2e
        Signature Algorithm: ecdsa-with-SHA256
        Issuer: C=KR, L=Daegu Smart City, O=GZCMM, OU=PKI, CN=rootca
        Validity
            Not Before: May  7 07:21:27 2020 GMT
            Not After : May  7 07:21:27 2023 GMT
        Subject: C=KR, L=Daegu Smart City, O=GZCMM, OU=PKI, CN=rootca
        Subject Public Key Info:
            Public Key Algorithm: id-ecPublicKey
                Public-Key: (521 bit)
                pub:
                    04:00:17:d9:14:c0:90:ec:d9:4f:6a:b5:69:a0:10:
                    8f:f1:56:b0:31:81:9f:7a:d0:a9:f1:f0:d1:1d:44:
                    77:7f:e9:b2:f0:00:52:79:e4:26:5a:d4:07:e4:c7:
                    da:ec:3f:2e:f2:43:54:9c:5e:ba:08:3a:b3:7b:7a:
                    36:5b:c2:a5:48:f6:aa:00:9b:98:81:97:ad:d0:3d:
                    f9:fe:b7:8a:32:ee:5a:58:4c:f3:f9:61:db:b7:e1:
                    0d:da:c7:59:30:80:2c:69:56:aa:f5:49:72:50:80:
                    52:61:32:1b:b7:9f:2a:b7:fe:af:a3:4f:31:dd:86:
                    18:84:43:3b:d8:cd:7a:b9:17:9b:65:df:b8
                ASN1 OID: secp521r1
                NIST CURVE: P-521
        X509v3 extensions:
            X509v3 Subject Key Identifier: 
                C0:A5:E0:33:31:DE:6E:26:1E:DE:08:15:79:A1:FA:E0:81:9B:34:A0
            X509v3 Authority Key Identifier: 
                keyid:C0:A5:E0:33:31:DE:6E:26:1E:DE:08:15:79:A1:FA:E0:81:9B:34:A0

            X509v3 Basic Constraints: critical
                CA:TRUE
    Signature Algorithm: ecdsa-with-SHA256
         30:81:88:02:42:01:f7:a0:b5:3a:ea:c1:d7:02:fb:e6:92:9a:
         1b:6d:2f:7d:64:21:07:3c:04:02:a9:ac:15:1a:c1:e5:01:c6:
         8a:b2:03:7a:66:be:3b:f9:da:bd:e0:c3:7c:aa:a5:ff:b5:b1:
         5d:f7:8b:0c:b6:3a:7f:c9:4c:23:97:0b:ba:f6:0a:f5:a8:02:
         42:00:82:79:58:18:62:a3:2e:11:2c:be:69:62:88:e8:ab:64:
         e5:0b:dd:09:44:09:22:84:90:09:1c:f6:7c:cc:3f:db:82:8a:
         89:f7:69:01:1a:9d:af:45:ee:ab:c3:ac:b0:8c:88:e0:f4:d5:
         9b:bd:ac:fd:9d:6b:4d:25:2d:ca:c9:48:66
-----BEGIN CERTIFICATE-----
MIICizCCAeygAwIBAgIUbp3GTMwyFaWVqeQs2Jp8c65EGC4wCgYIKoZIzj0EAwIw
VzELMAkGA1UEBhMCS1IxGTAXBgNVBAcMEERhZWd1IFNtYXJ0IENpdHkxDjAMBgNV
BAoMBUdaQ01NMQwwCgYDVQQLDANQS0kxDzANBgNVBAMMBnJvb3RjYTAeFw0yMDA1
MDcwNzIxMjdaFw0yMzA1MDcwNzIxMjdaMFcxCzAJBgNVBAYTAktSMRkwFwYDVQQH
DBBEYWVndSBTbWFydCBDaXR5MQ4wDAYDVQQKDAVHWkNNTTEMMAoGA1UECwwDUEtJ
MQ8wDQYDVQQDDAZyb290Y2EwgZswEAYHKoZIzj0CAQYFK4EEACMDgYYABAAX2RTA
kOzZT2q1aaAQj/FWsDGBn3rQqfHw0R1Ed3/psvAAUnnkJlrUB+TH2uw/LvJDVJxe
ugg6s3t6NlvCpUj2qgCbmIGXrdA9+f63ijLuWlhM8/lh27fhDdrHWTCALGlWqvVJ
clCAUmEyG7efKrf+r6NPMd2GGIRDO9jNerkXm2XfuKNTMFEwHQYDVR0OBBYEFMCl
4DMx3m4mHt4IFXmh+uCBmzSgMB8GA1UdIwQYMBaAFMCl4DMx3m4mHt4IFXmh+uCB
mzSgMA8GA1UdEwEB/wQFMAMBAf8wCgYIKoZIzj0EAwIDgYwAMIGIAkIB96C1OurB
1wL75pKaG20vfWQhBzwEAqmsFRrB5QHGirIDema+O/naveDDfKql/7WxXfeLDLY6
f8lMI5cLuvYK9agCQgCCeVgYYqMuESy+aWKI6Ktk5QvdCUQJIoSQCRz2fMw/24KK
ifdpARqdr0Xuq8OssIyI4PTVm72s/Z1rTSUtyslIZg==
-----END CERTIFICATE-----
