Certificate:
    Data:
        Version: 3 (0x2)
        Serial Number:
            09:65:dc:03:94:27:f3:e4:6d:85:a8:9e:1d:32:d6:64:70:76:f1:c8
        Signature Algorithm: ecdsa-with-SHA256
        Issuer: C=KR, O=IoT Smart Home, OU=PKICA, CN=IoT Smart Home CA
        Validity
            Not Before: Oct 31 04:10:41 2020 GMT
            Not After : Oct 28 04:10:41 2035 GMT
        Subject: C=KR, O=IoT Smart Home, OU=Server, CN=IoT Smart Home Server
        Subject Public Key Info:
            Public Key Algorithm: id-ecPublicKey
                Public-Key: (521 bit)
                pub:
                    04:01:4b:32:b6:3e:fe:71:0c:e7:aa:44:34:e2:c5:
                    46:97:9f:52:c6:56:1e:06:30:6c:ad:49:f6:ac:98:
                    14:b3:d4:49:af:b8:87:20:8e:6f:fb:6a:20:1c:ec:
                    78:b8:6d:98:ef:da:f5:30:7f:4c:3a:72:b7:b0:84:
                    6a:61:76:98:4e:f9:9e:00:50:31:53:83:e9:98:1b:
                    13:89:64:74:24:97:81:2c:e1:8b:0f:2f:c5:2c:a4:
                    c4:93:b7:80:e3:d5:d6:ef:4d:f1:49:5a:66:b1:80:
                    45:63:2e:fd:2f:d0:0f:79:1c:de:59:2e:05:d1:8e:
                    a0:91:d1:10:b6:c7:b7:3d:5b:12:b7:37:89
                ASN1 OID: secp521r1
                NIST CURVE: P-521
        X509v3 extensions:
            X509v3 Basic Constraints: 
                CA:FALSE
            Netscape Comment: 
                OpenSSL Generated Certificate
            X509v3 Subject Key Identifier: 
                2A:1B:F5:DF:49:8A:2A:1F:AA:4A:70:B7:B8:33:A5:DF:C9:2C:1F:1F
            X509v3 Authority Key Identifier: 
                keyid:43:F5:8E:B9:06:F7:A2:54:60:83:BC:22:6F:71:B3:34:E4:15:DC:29

    Signature Algorithm: ecdsa-with-SHA256
         30:81:88:02:42:01:30:8b:d9:39:2a:e6:46:8f:95:eb:46:2f:
         c0:37:54:df:43:f0:40:c5:89:c1:c7:da:9c:9b:5a:d7:71:bf:
         0d:a0:22:27:7f:da:b1:d4:e2:f3:27:e0:72:ed:60:7e:b9:43:
         1a:1c:18:ca:39:2b:0c:05:08:17:57:de:06:4b:02:64:96:02:
         42:01:ba:14:ff:4d:d0:f5:2e:04:14:e8:98:6f:24:80:bf:6e:
         4c:7b:91:bf:38:38:1c:1e:5e:fd:4c:be:10:fc:93:24:d0:47:
         70:df:8f:e1:2c:45:f6:2e:dc:d4:eb:de:f4:de:02:27:ae:ed:
         10:29:60:1b:36:cf:c5:bb:ab:e2:a0:26:c8
-----BEGIN CERTIFICATE-----
MIICrjCCAg+gAwIBAgIUCWXcA5Qn8+RthaieHTLWZHB28cgwCgYIKoZIzj0EAwIw
UjELMAkGA1UEBhMCS1IxFzAVBgNVBAoMDklvVCBTbWFydCBIb21lMQ4wDAYDVQQL
DAVQS0lDQTEaMBgGA1UEAwwRSW9UIFNtYXJ0IEhvbWUgQ0EwHhcNMjAxMDMxMDQx
MDQxWhcNMzUxMDI4MDQxMDQxWjBXMQswCQYDVQQGEwJLUjEXMBUGA1UECgwOSW9U
IFNtYXJ0IEhvbWUxDzANBgNVBAsMBlNlcnZlcjEeMBwGA1UEAwwVSW9UIFNtYXJ0
IEhvbWUgU2VydmVyMIGbMBAGByqGSM49AgEGBSuBBAAjA4GGAAQBSzK2Pv5xDOeq
RDTixUaXn1LGVh4GMGytSfasmBSz1EmvuIcgjm/7aiAc7Hi4bZjv2vUwf0w6crew
hGphdphO+Z4AUDFTg+mYGxOJZHQkl4Es4YsPL8UspMSTt4Dj1dbvTfFJWmaxgEVj
Lv0v0A95HN5ZLgXRjqCR0RC2x7c9WxK3N4mjezB5MAkGA1UdEwQCMAAwLAYJYIZI
AYb4QgENBB8WHU9wZW5TU0wgR2VuZXJhdGVkIENlcnRpZmljYXRlMB0GA1UdDgQW
BBQqG/XfSYoqH6pKcLe4M6XfySwfHzAfBgNVHSMEGDAWgBRD9Y65BveiVGCDvCJv
cbM05BXcKTAKBggqhkjOPQQDAgOBjAAwgYgCQgEwi9k5KuZGj5XrRi/AN1TfQ/BA
xYnBx9qcm1rXcb8NoCInf9qx1OLzJ+By7WB+uUMaHBjKOSsMBQgXV94GSwJklgJC
AboU/03Q9S4EFOiYbySAv25Me5G/ODgcHl79TL4Q/JMk0Edw34/hLEX2LtzU6970
3gInru0QKWAbNs/Fu6vioCbI
-----END CERTIFICATE-----
ecp.k:E206C901F22E88FDEA96B4BC5BC99EAD4CFC0A17B3AA474F182C7215CD6630AA
ecp.x1:44B43F7F6B7E916D7A49A0D94C02E7F61914B99B43DDFABF2083BB1C7E6CEEEF
ecp.y1:6BA714B15966955B59BF22D3524CC1CE96AA5C0D899E03EBC43E426860C28F28

