Certificate:
    Data:
        Version: 3 (0x2)
        Serial Number:
            09:65:dc:03:94:27:f3:e4:6d:85:a8:9e:1d:32:d6:64:70:76:f1:c5
        Signature Algorithm: ecdsa-with-SHA256
        Issuer: C=KR, O=IoT Smart Home, OU=PKICA, CN=IoT Smart Home CA
        Validity
            Not Before: Oct 31 03:19:21 2020 GMT
            Not After : Oct 26 03:19:21 2040 GMT
        Subject: C=KR, O=IoT Smart Home, OU=PKICA, CN=IoT Smart Home CA
        Subject Public Key Info:
            Public Key Algorithm: id-ecPublicKey
                Public-Key: (521 bit)
                pub:
                    04:01:ab:ca:86:0c:d5:09:d3:46:60:73:0a:b1:77:
                    3e:cd:3b:be:bd:b2:22:26:fb:49:c1:cc:32:37:91:
                    0b:44:16:47:0f:04:43:8d:50:dc:ba:67:90:58:fa:
                    90:c7:7c:65:72:ff:db:b3:a6:6c:3f:5d:7e:7a:9a:
                    cd:93:75:bf:31:ea:61:00:ee:bc:e9:88:67:df:38:
                    69:9e:57:23:64:32:7b:27:17:16:41:a1:2c:32:22:
                    bd:14:59:b0:49:f9:66:cc:a1:8d:17:ab:d5:ce:95:
                    8a:dc:4a:20:75:75:05:d1:fd:0a:d9:a0:5f:f0:f4:
                    df:a3:83:00:b2:06:a1:5c:e3:9b:d7:91:b9
                ASN1 OID: secp521r1
                NIST CURVE: P-521
        X509v3 extensions:
            X509v3 Subject Key Identifier: 
                43:F5:8E:B9:06:F7:A2:54:60:83:BC:22:6F:71:B3:34:E4:15:DC:29
            X509v3 Authority Key Identifier: 
                keyid:43:F5:8E:B9:06:F7:A2:54:60:83:BC:22:6F:71:B3:34:E4:15:DC:29

            X509v3 Basic Constraints: critical
                CA:TRUE
    Signature Algorithm: ecdsa-with-SHA256
         30:81:88:02:42:01:bc:e8:d8:53:1d:62:a9:30:50:5f:e6:ae:
         3a:35:08:5f:4f:bf:6a:2c:62:56:ce:9d:b5:85:fd:d6:d2:3d:
         ff:ad:a4:a2:d1:89:db:6f:04:77:c8:47:dd:e3:2f:0a:7b:b7:
         82:46:fb:09:4f:06:0f:d6:14:30:58:4f:5c:3c:37:66:c6:02:
         42:01:49:31:a9:5c:aa:d4:db:fb:a0:9c:12:8e:96:82:4d:47:
         cd:c9:d9:77:56:b2:19:cb:c6:79:f4:ff:fb:49:6e:27:d7:96:
         f8:67:f2:15:9c:02:cf:94:31:0d:4e:45:46:fc:4d:1c:78:6b:
         1b:01:b4:c0:3f:86:2b:78:a7:9f:c4:e6:04
-----BEGIN CERTIFICATE-----
MIICgTCCAeKgAwIBAgIUCWXcA5Qn8+RthaieHTLWZHB28cUwCgYIKoZIzj0EAwIw
UjELMAkGA1UEBhMCS1IxFzAVBgNVBAoMDklvVCBTbWFydCBIb21lMQ4wDAYDVQQL
DAVQS0lDQTEaMBgGA1UEAwwRSW9UIFNtYXJ0IEhvbWUgQ0EwHhcNMjAxMDMxMDMx
OTIxWhcNNDAxMDI2MDMxOTIxWjBSMQswCQYDVQQGEwJLUjEXMBUGA1UECgwOSW9U
IFNtYXJ0IEhvbWUxDjAMBgNVBAsMBVBLSUNBMRowGAYDVQQDDBFJb1QgU21hcnQg
SG9tZSBDQTCBmzAQBgcqhkjOPQIBBgUrgQQAIwOBhgAEAavKhgzVCdNGYHMKsXc+
zTu+vbIiJvtJwcwyN5ELRBZHDwRDjVDcumeQWPqQx3xlcv/bs6ZsP11+eprNk3W/
MephAO686Yhn3zhpnlcjZDJ7JxcWQaEsMiK9FFmwSflmzKGNF6vVzpWK3EogdXUF
0f0K2aBf8PTfo4MAsgahXOOb15G5o1MwUTAdBgNVHQ4EFgQUQ/WOuQb3olRgg7wi
b3GzNOQV3CkwHwYDVR0jBBgwFoAUQ/WOuQb3olRgg7wib3GzNOQV3CkwDwYDVR0T
AQH/BAUwAwEB/zAKBggqhkjOPQQDAgOBjAAwgYgCQgG86NhTHWKpMFBf5q46NQhf
T79qLGJWzp21hf3W0j3/raSi0YnbbwR3yEfd4y8Ke7eCRvsJTwYP1hQwWE9cPDdm
xgJCAUkxqVyq1Nv7oJwSjpaCTUfNydl3VrIZy8Z59P/7SW4n15b4Z/IVnALPlDEN
TkVG/E0ceGsbAbTAP4YreKefxOYE
-----END CERTIFICATE-----
