Certificate:
    Data:
        Version: 3 (0x2)
        Serial Number:
            09:65:dc:03:94:27:f3:e4:6d:85:a8:9e:1d:32:d6:64:70:76:f1:c6
        Signature Algorithm: ecdsa-with-SHA256
        Issuer: C=KR, O=IoT Smart Home, OU=PKICA, CN=IoT Smart Home CA
        Validity
            Not Before: Oct 31 03:41:23 2020 GMT
            Not After : Oct 31 03:41:23 2021 GMT
        Subject: C=KR, O=IoT Smart Home, OU=Server, CN=IoT Smart Home Server
        Subject Public Key Info:
            Public Key Algorithm: id-ecPublicKey
                Public-Key: (521 bit)
                pub:
                    04:00:48:40:82:95:36:44:a8:6c:fb:5c:d0:21:3e:
                    9a:12:55:91:3e:bf:1f:b6:8c:eb:f6:f6:ea:b3:71:
                    60:d2:8a:25:09:bb:78:ed:83:51:93:5b:d3:9f:41:
                    6b:9a:84:ae:5f:e9:bd:f0:fe:42:da:7a:a6:10:50:
                    d8:dc:2c:64:98:45:47:00:85:01:66:5b:b3:2f:50:
                    54:26:64:4a:75:a2:84:ec:1d:8b:37:a4:6f:91:44:
                    77:ba:01:4f:21:19:0a:7d:83:7d:8f:2a:df:d9:78:
                    f8:a0:78:cc:d5:75:e4:ca:5d:0c:f3:3a:3f:f3:e4:
                    96:32:cb:43:42:a8:a0:e4:2a:c1:0a:58:91
                ASN1 OID: secp521r1
                NIST CURVE: P-521
        X509v3 extensions:
            X509v3 Basic Constraints: 
                CA:FALSE
            Netscape Comment: 
                OpenSSL Generated Certificate
            X509v3 Subject Key Identifier: 
                16:22:56:63:83:D2:AC:51:22:14:58:64:86:8B:B0:E9:92:66:26:C2
            X509v3 Authority Key Identifier: 
                keyid:43:F5:8E:B9:06:F7:A2:54:60:83:BC:22:6F:71:B3:34:E4:15:DC:29

    Signature Algorithm: ecdsa-with-SHA256
         30:81:88:02:42:01:43:c9:e9:88:ed:0a:45:74:36:a1:bb:f4:
         b7:88:09:1d:8a:fc:55:eb:c5:76:fb:5a:e7:9b:cc:79:28:86:
         50:27:ed:9a:7f:44:ad:25:b4:56:6d:17:99:12:e9:c1:de:76:
         5f:1f:84:2e:3e:e0:4a:d9:bf:62:13:bd:af:bf:35:b8:18:02:
         42:01:43:7f:0c:97:65:94:0e:00:aa:05:96:54:42:eb:76:e2:
         d3:a5:c6:ba:3d:b4:7f:9c:84:54:0a:d0:b4:b4:9f:b3:16:aa:
         d8:4c:9c:d6:4e:46:93:35:3d:d1:7f:6e:4e:d4:2e:46:0a:7c:
         cc:52:c4:27:b0:e0:5a:db:cf:6c:70:c8:7e
-----BEGIN CERTIFICATE-----
MIICrjCCAg+gAwIBAgIUCWXcA5Qn8+RthaieHTLWZHB28cYwCgYIKoZIzj0EAwIw
UjELMAkGA1UEBhMCS1IxFzAVBgNVBAoMDklvVCBTbWFydCBIb21lMQ4wDAYDVQQL
DAVQS0lDQTEaMBgGA1UEAwwRSW9UIFNtYXJ0IEhvbWUgQ0EwHhcNMjAxMDMxMDM0
MTIzWhcNMjExMDMxMDM0MTIzWjBXMQswCQYDVQQGEwJLUjEXMBUGA1UECgwOSW9U
IFNtYXJ0IEhvbWUxDzANBgNVBAsMBlNlcnZlcjEeMBwGA1UEAwwVSW9UIFNtYXJ0
IEhvbWUgU2VydmVyMIGbMBAGByqGSM49AgEGBSuBBAAjA4GGAAQASECClTZEqGz7
XNAhPpoSVZE+vx+2jOv29uqzcWDSiiUJu3jtg1GTW9OfQWuahK5f6b3w/kLaeqYQ
UNjcLGSYRUcAhQFmW7MvUFQmZEp1ooTsHYs3pG+RRHe6AU8hGQp9g32PKt/ZePig
eMzVdeTKXQzzOj/z5JYyy0NCqKDkKsEKWJGjezB5MAkGA1UdEwQCMAAwLAYJYIZI
AYb4QgENBB8WHU9wZW5TU0wgR2VuZXJhdGVkIENlcnRpZmljYXRlMB0GA1UdDgQW
BBQWIlZjg9KsUSIUWGSGi7DpkmYmwjAfBgNVHSMEGDAWgBRD9Y65BveiVGCDvCJv
cbM05BXcKTAKBggqhkjOPQQDAgOBjAAwgYgCQgFDyemI7QpFdDahu/S3iAkdivxV
68V2+1rnm8x5KIZQJ+2af0StJbRWbReZEunB3nZfH4QuPuBK2b9iE72vvzW4GAJC
AUN/DJdllA4AqgWWVELrduLTpca6PbR/nIRUCtC0tJ+zFqrYTJzWTkaTNT3Rf25O
1C5GCnzMUsQnsOBa289scMh+
-----END CERTIFICATE-----
