Certificate:
    Data:
        Version: 3 (0x2)
        Serial Number:
            09:65:dc:03:94:27:f3:e4:6d:85:a8:9e:1d:32:d6:64:70:76:f1:c7
        Signature Algorithm: ecdsa-with-SHA256
        Issuer: C=KR, O=IoT Smart Home, OU=PKICA, CN=IoT Smart Home CA
        Validity
            Not Before: Oct 31 03:44:54 2020 GMT
            Not After : Oct 31 03:44:54 2021 GMT
        Subject: C=KR, O=IoT Smart Home, OU=Server, CN=Test Server for Encryption
        Subject Public Key Info:
            Public Key Algorithm: id-ecPublicKey
                Public-Key: (521 bit)
                pub:
                    04:00:4d:a1:0a:57:d0:92:bf:35:66:3e:eb:52:6b:
                    b7:b6:f1:85:d6:e0:db:d4:7f:41:82:f3:f8:60:a8:
                    12:d1:78:f5:c4:13:78:69:b8:bc:c2:5c:df:66:26:
                    25:f6:ed:36:fd:99:96:39:38:57:58:43:42:0b:2e:
                    0a:4d:c4:d0:6a:e5:74:00:ea:5d:9c:1e:09:b1:ae:
                    c5:ad:a9:95:94:6c:4b:cc:2a:69:38:78:91:3d:1a:
                    ac:33:85:dc:17:3e:bb:a5:28:df:94:ae:64:8d:4e:
                    60:a7:ec:28:ca:3b:b8:88:b6:e1:aa:97:b7:18:ab:
                    d2:0a:8f:66:59:b4:36:83:7c:6f:8e:3f:31
                ASN1 OID: secp521r1
                NIST CURVE: P-521
        X509v3 extensions:
            X509v3 Basic Constraints: 
                CA:FALSE
            Netscape Comment: 
                OpenSSL Generated Certificate
            X509v3 Subject Key Identifier: 
                45:F7:21:92:1A:0A:63:22:54:12:F5:FF:89:E5:5A:85:B8:A6:D4:E6
            X509v3 Authority Key Identifier: 
                keyid:43:F5:8E:B9:06:F7:A2:54:60:83:BC:22:6F:71:B3:34:E4:15:DC:29

    Signature Algorithm: ecdsa-with-SHA256
         30:81:88:02:42:01:c1:db:b6:50:ad:18:94:c8:b1:d1:00:e2:
         1b:89:14:1e:f7:d5:01:a8:67:ff:dd:0c:d2:db:4c:e6:cd:3c:
         0c:41:de:5d:c5:df:e1:ec:d0:40:ed:1b:21:55:99:74:d9:01:
         e2:17:be:d4:7b:e6:93:82:fb:f6:ed:87:b9:c2:a5:94:b9:02:
         42:01:18:e7:04:18:82:4a:21:7c:01:c5:15:a5:2d:09:1b:1e:
         2b:e2:40:3c:f5:f8:9d:0e:94:c2:27:96:f4:8b:08:57:e8:42:
         2b:2f:c0:7c:a2:32:c6:df:20:e3:90:8e:7c:dd:b4:74:7a:61:
         35:48:6e:15:80:98:0b:f7:e2:00:5f:ea:09
-----BEGIN CERTIFICATE-----
MIICszCCAhSgAwIBAgIUCWXcA5Qn8+RthaieHTLWZHB28ccwCgYIKoZIzj0EAwIw
UjELMAkGA1UEBhMCS1IxFzAVBgNVBAoMDklvVCBTbWFydCBIb21lMQ4wDAYDVQQL
DAVQS0lDQTEaMBgGA1UEAwwRSW9UIFNtYXJ0IEhvbWUgQ0EwHhcNMjAxMDMxMDM0
NDU0WhcNMjExMDMxMDM0NDU0WjBcMQswCQYDVQQGEwJLUjEXMBUGA1UECgwOSW9U
IFNtYXJ0IEhvbWUxDzANBgNVBAsMBlNlcnZlcjEjMCEGA1UEAwwaVGVzdCBTZXJ2
ZXIgZm9yIEVuY3J5cHRpb24wgZswEAYHKoZIzj0CAQYFK4EEACMDgYYABABNoQpX
0JK/NWY+61Jrt7bxhdbg29R/QYLz+GCoEtF49cQTeGm4vMJc32YmJfbtNv2Zljk4
V1hDQgsuCk3E0GrldADqXZweCbGuxa2plZRsS8wqaTh4kT0arDOF3Bc+u6Uo35Su
ZI1OYKfsKMo7uIi24aqXtxir0gqPZlm0NoN8b44/MaN7MHkwCQYDVR0TBAIwADAs
BglghkgBhvhCAQ0EHxYdT3BlblNTTCBHZW5lcmF0ZWQgQ2VydGlmaWNhdGUwHQYD
VR0OBBYEFEX3IZIaCmMiVBL1/4nlWoW4ptTmMB8GA1UdIwQYMBaAFEP1jrkG96JU
YIO8Im9xszTkFdwpMAoGCCqGSM49BAMCA4GMADCBiAJCAcHbtlCtGJTIsdEA4huJ
FB731QGoZ//dDNLbTObNPAxB3l3F3+Hs0EDtGyFVmXTZAeIXvtR75pOC+/bth7nC
pZS5AkIBGOcEGIJKIXwBxRWlLQkbHiviQDz1+J0OlMInlvSLCFfoQisvwHyiMsbf
IOOQjnzdtHR6YTVIbhWAmAv34gBf6gk=
-----END CERTIFICATE-----
