Certificate:
    Data:
        Version: 3 (0x2)
        Serial Number:
            6e:9d:c6:4c:cc:32:15:a5:95:a9:e4:2c:d8:9a:7c:73:ae:44:18:2f
        Signature Algorithm: ecdsa-with-SHA256
        Issuer: C=KR, L=Daegu Smart City, O=GZCMM, OU=PKI, CN=rootca
        Validity
            Not Before: May  7 07:23:44 2020 GMT
            Not After : May  7 07:23:44 2021 GMT
        Subject: C=KR, L=Daegu Smart City, O=GZCMM, OU=PKI, CN=1111
        Subject Public Key Info:
            Public Key Algorithm: id-ecPublicKey
                Public-Key: (256 bit)
                pub:
                    04:95:1c:ac:80:0c:5c:fc:94:a6:fc:9b:39:32:9c:
                    b1:ef:32:ba:e4:0a:e8:2a:66:c1:b3:29:f4:11:4c:
                    4c:79:50:2e:17:6c:54:01:af:93:be:b7:3c:e8:d6:
                    da:cf:4a:74:21:60:6a:ee:0c:1f:1a:0f:c2:be:f3:
                    79:f5:42:7c:e6
                ASN1 OID: secp256k1
        X509v3 extensions:
            X509v3 Basic Constraints: 
                CA:FALSE
            Netscape Comment: 
                GZCMM Generated Certificate
            X509v3 Subject Key Identifier: 
                3E:05:34:A1:A1:65:49:B7:E6:1B:9B:C6:C6:B9:E6:C2:E9:69:39:CC
            X509v3 Authority Key Identifier: 
                keyid:C0:A5:E0:33:31:DE:6E:26:1E:DE:08:15:79:A1:FA:E0:81:9B:34:A0

    Signature Algorithm: ecdsa-with-SHA256
         30:81:87:02:41:06:3b:5f:78:86:9e:a9:61:d7:85:4d:56:72:
         25:34:17:07:e9:b1:9d:80:c7:c7:e0:78:33:a0:46:31:94:7d:
         ed:74:25:be:0d:ff:27:31:3b:96:5f:27:c6:6f:c7:33:c2:b7:
         27:bb:f5:7a:c4:da:5d:ab:6f:21:51:dc:f9:21:02:cf:02:42:
         01:3b:9c:77:ed:61:8f:f2:35:74:a0:48:f6:8d:7e:cb:e9:5b:
         28:b3:d4:f7:45:15:6e:16:2c:cf:35:e8:2b:e8:2f:18:13:7a:
         44:b6:2c:43:4a:8e:1d:9a:1c:d3:a8:56:77:d9:93:63:4f:28:
         5f:85:73:b9:1a:90:04:13:ad:c7:14:69
-----BEGIN CERTIFICATE-----
MIICaDCCAcqgAwIBAgIUbp3GTMwyFaWVqeQs2Jp8c65EGC8wCgYIKoZIzj0EAwIw
VzELMAkGA1UEBhMCS1IxGTAXBgNVBAcMEERhZWd1IFNtYXJ0IENpdHkxDjAMBgNV
BAoMBUdaQ01NMQwwCgYDVQQLDANQS0kxDzANBgNVBAMMBnJvb3RjYTAeFw0yMDA1
MDcwNzIzNDRaFw0yMTA1MDcwNzIzNDRaMFUxCzAJBgNVBAYTAktSMRkwFwYDVQQH
DBBEYWVndSBTbWFydCBDaXR5MQ4wDAYDVQQKDAVHWkNNTTEMMAoGA1UECwwDUEtJ
MQ0wCwYDVQQDDAQxMTExMFYwEAYHKoZIzj0CAQYFK4EEAAoDQgAElRysgAxc/JSm
/Js5Mpyx7zK65AroKmbBsyn0EUxMeVAuF2xUAa+Tvrc86Nbaz0p0IWBq7gwfGg/C
vvN59UJ85qN5MHcwCQYDVR0TBAIwADAqBglghkgBhvhCAQ0EHRYbR1pDTU0gR2Vu
ZXJhdGVkIENlcnRpZmljYXRlMB0GA1UdDgQWBBQ+BTShoWVJt+Ybm8bGuebC6Wk5
zDAfBgNVHSMEGDAWgBTApeAzMd5uJh7eCBV5ofrggZs0oDAKBggqhkjOPQQDAgOB
iwAwgYcCQQY7X3iGnqlh14VNVnIlNBcH6bGdgMfH4HgzoEYxlH3tdCW+Df8nMTuW
XyfGb8czwrcnu/V6xNpdq28hUdz5IQLPAkIBO5x37WGP8jV0oEj2jX7L6Vsos9T3
RRVuFizPNegr6C8YE3pEtixDSo4dmhzTqFZ32ZNjTyhfhXO5GpAEE63HFGk=
-----END CERTIFICATE-----
