Certificate:
    Data:
        Version: 3 (0x2)
        Serial Number:
            75:67:88:3a:b6:8d:fe:ca:d8:c9:8d:fb:19:42:dc:3b:96:85:f3:44
        Signature Algorithm: sha256WithRSAEncryption
        Issuer: C=kr, O=greenzonesecu, OU=pkica, CN=test
        Validity
            Not Before: Jun 12 07:55:51 2020 GMT
            Not After : Jun 12 07:55:51 2023 GMT
        Subject: C=kr, O=greenzonesecu, OU=pkica, CN=test
        Subject Public Key Info:
            Public Key Algorithm: rsaEncryption
                RSA Public-Key: (2048 bit)
                Modulus:
                    00:f5:12:30:6c:29:fe:76:5d:a7:91:63:1b:28:9f:
                    33:05:79:4d:11:ce:ce:ab:f7:ab:40:7f:0b:1d:b5:
                    e1:1f:c1:af:9c:67:4f:74:7e:f2:c8:90:c8:f7:fd:
                    26:5b:99:41:99:c2:93:76:41:2d:d8:6a:cd:82:71:
                    89:ac:1d:66:72:20:f5:8c:01:03:52:27:cc:5e:6e:
                    6a:6d:e5:ba:d4:9e:4e:ca:68:24:8d:e8:a3:36:ef:
                    e2:2d:3d:e4:f2:c5:8f:97:53:60:62:cc:a8:ff:87:
                    79:a1:7b:3f:30:32:d9:3e:83:61:58:e0:4e:5a:d1:
                    df:65:cb:bf:89:ac:a7:4d:74:c8:1b:54:56:56:4c:
                    bf:75:b3:21:17:5d:18:2c:c3:ca:86:ff:af:6c:bf:
                    1b:dd:16:a4:de:f3:0b:20:f6:2f:27:a1:39:2b:89:
                    5e:7b:a0:29:ae:f5:70:7d:9a:69:90:59:d4:c2:5b:
                    a5:18:98:96:e3:cc:6d:92:70:da:00:53:a6:63:1c:
                    bf:f8:ed:3e:29:d7:45:47:b2:85:a7:15:9f:b4:f5:
                    7a:b7:5c:9b:3a:c1:18:16:e3:4a:98:3e:e0:32:85:
                    cb:82:ed:8e:68:ef:03:6b:fe:a5:7b:21:7e:a1:61:
                    a2:1a:8c:07:54:84:62:53:ab:21:00:af:b4:ad:05:
                    5a:5f
                Exponent: 65537 (0x10001)
        X509v3 extensions:
            X509v3 Subject Key Identifier: 
                F6:F0:48:D6:33:7A:43:B1:B0:AB:0F:20:8C:D6:C9:1E:C3:D7:35:1D
            X509v3 Authority Key Identifier: 
                keyid:F6:F0:48:D6:33:7A:43:B1:B0:AB:0F:20:8C:D6:C9:1E:C3:D7:35:1D

            X509v3 Basic Constraints: critical
                CA:TRUE
    Signature Algorithm: sha256WithRSAEncryption
         ae:2d:df:94:72:72:cf:08:26:6b:50:b3:21:b7:0c:81:91:3b:
         c5:3a:85:49:93:6f:7c:a0:38:3b:c2:f3:9e:0d:0c:a5:44:05:
         a4:02:10:96:a4:2e:de:6c:3c:0d:d0:0a:79:fc:78:70:18:86:
         1a:87:0e:8c:0c:50:d5:01:ab:65:30:0b:e0:42:e1:81:8f:21:
         ad:0f:49:78:9f:5d:59:59:ad:0b:6a:89:aa:1a:d5:fc:cc:0b:
         76:e1:4d:33:31:92:a7:16:0d:04:d8:c1:37:c3:3b:13:3c:77:
         30:fa:f1:96:53:41:67:38:60:c4:3e:dc:b6:07:bf:1f:b5:0a:
         29:d8:b5:bc:66:fe:09:e8:18:83:36:2b:f3:4b:b7:0f:80:2f:
         b4:78:e6:db:44:87:5f:59:84:05:d2:09:01:f7:7e:63:e2:ef:
         60:78:75:84:74:19:cd:71:33:c3:f0:a9:a7:ed:cb:db:e5:ba:
         a2:07:02:dd:92:13:6c:a8:a3:46:75:8e:5d:ed:c8:27:a1:82:
         c1:aa:fa:39:81:d9:15:7c:69:ac:99:a3:ae:60:fb:93:a0:76:
         77:6d:af:00:f2:a9:0c:0e:96:e5:fd:9b:1e:d1:ff:86:66:93:
         93:19:06:9b:39:72:d1:e7:3d:89:c9:c9:5a:74:f1:36:97:f9:
         38:e4:7c:9e
-----BEGIN CERTIFICATE-----
MIIDaTCCAlGgAwIBAgIUdWeIOraN/srYyY37GULcO5aF80QwDQYJKoZIhvcNAQEL
BQAwRDELMAkGA1UEBhMCa3IxFjAUBgNVBAoMDWdyZWVuem9uZXNlY3UxDjAMBgNV
BAsMBXBraWNhMQ0wCwYDVQQDDAR0ZXN0MB4XDTIwMDYxMjA3NTU1MVoXDTIzMDYx
MjA3NTU1MVowRDELMAkGA1UEBhMCa3IxFjAUBgNVBAoMDWdyZWVuem9uZXNlY3Ux
DjAMBgNVBAsMBXBraWNhMQ0wCwYDVQQDDAR0ZXN0MIIBIjANBgkqhkiG9w0BAQEF
AAOCAQ8AMIIBCgKCAQEA9RIwbCn+dl2nkWMbKJ8zBXlNEc7Oq/erQH8LHbXhH8Gv
nGdPdH7yyJDI9/0mW5lBmcKTdkEt2GrNgnGJrB1mciD1jAEDUifMXm5qbeW61J5O
ymgkjeijNu/iLT3k8sWPl1NgYsyo/4d5oXs/MDLZPoNhWOBOWtHfZcu/iaynTXTI
G1RWVky/dbMhF10YLMPKhv+vbL8b3Rak3vMLIPYvJ6E5K4lee6AprvVwfZppkFnU
wlulGJiW48xtknDaAFOmYxy/+O0+KddFR7KFpxWftPV6t1ybOsEYFuNKmD7gMoXL
gu2OaO8Da/6leyF+oWGiGowHVIRiU6shAK+0rQVaXwIDAQABo1MwUTAdBgNVHQ4E
FgQU9vBI1jN6Q7Gwqw8gjNbJHsPXNR0wHwYDVR0jBBgwFoAU9vBI1jN6Q7Gwqw8g
jNbJHsPXNR0wDwYDVR0TAQH/BAUwAwEB/zANBgkqhkiG9w0BAQsFAAOCAQEAri3f
lHJyzwgma1CzIbcMgZE7xTqFSZNvfKA4O8Lzng0MpUQFpAIQlqQu3mw8DdAKefx4
cBiGGocOjAxQ1QGrZTAL4ELhgY8hrQ9JeJ9dWVmtC2qJqhrV/MwLduFNMzGSpxYN
BNjBN8M7Ezx3MPrxllNBZzhgxD7ctge/H7UKKdi1vGb+CegYgzYr80u3D4AvtHjm
20SHX1mEBdIJAfd+Y+LvYHh1hHQZzXEzw/Cpp+3L2+W6ogcC3ZITbKijRnWOXe3I
J6GCwar6OYHZFXxprJmjrmD7k6B2d22vAPKpDA6W5f2bHtH/hmaTkxkGmzly0ec9
icnJWnTxNpf5OOR8ng==
-----END CERTIFICATE-----
